; Function Attrs: nounwind uwtable
define i32 @BIO_gets(ptr noundef %0, ptr noundef %1, i32 noundef %2) local_unnamed_addr #0 {
  %4 = alloca i64, align 8
  call void @llvm.lifetime.start.p0(i64 8, ptr nonnull %4) #14
  store i64 0, ptr %4, align 8, !tbaa !32
  %5 = icmp eq ptr %0, null
  br i1 %5, label %6, label %7

6:                                                ; preds = %3
  tail call void @ERR_new() #14
  tail call void @ERR_set_debug(ptr noundef nonnull @.str, i32 noundef 553, ptr noundef nonnull @__func__.BIO_gets) #14
  tail call void (i32, i32, ptr, ...) @ERR_set_error(i32 noundef 32, i32 noundef 786690, ptr noundef null) #14
  br label %67

7:                                                ; preds = %3
  %8 = getelementptr inbounds nuw i8, ptr %0, i64 8
  %9 = load ptr, ptr %8, align 8, !tbaa !17
  %10 = icmp eq ptr %9, null
  br i1 %10, label %15, label %11

11:                                               ; preds = %7
  %12 = getelementptr inbounds nuw i8, ptr %9, i64 56
  %13 = load ptr, ptr %12, align 8, !tbaa !48
  %14 = icmp eq ptr %13, null
  br i1 %14, label %15, label %16

15:                                               ; preds = %11, %7
  tail call void @ERR_new() #14
  tail call void @ERR_set_debug(ptr noundef nonnull @.str, i32 noundef 557, ptr noundef nonnull @__func__.BIO_gets) #14
  tail call void (i32, i32, ptr, ...) @ERR_set_error(i32 noundef 32, i32 noundef 121, ptr noundef null) #14
  br label %67

16:                                               ; preds = %11
  %17 = icmp slt i32 %2, 0
  br i1 %17, label %18, label %19

18:                                               ; preds = %16
  tail call void @ERR_new() #14
  tail call void @ERR_set_debug(ptr noundef nonnull @.str, i32 noundef 562, ptr noundef nonnull @__func__.BIO_gets) #14
  tail call void (i32, i32, ptr, ...) @ERR_set_error(i32 noundef 32, i32 noundef 125, ptr noundef null) #14
  br label %67

19:                                               ; preds = %16
  %20 = getelementptr inbounds nuw i8, ptr %0, i64 16
  %21 = load ptr, ptr %20, align 8, !tbaa !23
  %.not = icmp eq ptr %21, null
  %22 = getelementptr inbounds nuw i8, ptr %0, i64 24
  %23 = load ptr, ptr %22, align 8, !tbaa !24
  %.not35 = icmp eq ptr %23, null
  br i1 %.not, label %24, label %25

24:                                               ; preds = %19
  br i1 %.not35, label %32, label %.thread

25:                                               ; preds = %19
  br i1 %.not35, label %28, label %.thread

.thread:                                          ; preds = %24, %25
  %26 = zext nneg i32 %2 to i64
  %27 = tail call i64 %23(ptr noundef nonnull %0, i32 noundef 5, ptr noundef %1, i64 noundef %26, i32 noundef 0, i64 noundef 0, i32 noundef 1, ptr noundef null) #14
  br label %bio_call_callback.exit

28:                                               ; preds = %25
  %29 = tail call i64 %21(ptr noundef nonnull %0, i32 noundef 5, ptr noundef %1, i32 noundef %2, i64 noundef 0, i64 noundef 1) #14
  br label %bio_call_callback.exit

bio_call_callback.exit:                           ; preds = %28, %.thread
  %.0.i = phi i64 [ %27, %.thread ], [ %29, %28 ]
  %30 = trunc i64 %.0.i to i32
  %31 = icmp slt i32 %30, 1
  br i1 %31, label %67, label %32

32:                                               ; preds = %bio_call_callback.exit, %24
  %33 = getelementptr inbounds nuw i8, ptr %0, i64 40
  %34 = load i32, ptr %33, align 8, !tbaa !22
  %.not36 = icmp eq i32 %34, 0
  br i1 %.not36, label %35, label %36

35:                                               ; preds = %32
  tail call void @ERR_new() #14
  tail call void @ERR_set_debug(ptr noundef nonnull @.str, i32 noundef 573, ptr noundef nonnull @__func__.BIO_gets) #14
  tail call void (i32, i32, ptr, ...) @ERR_set_error(i32 noundef 32, i32 noundef 120, ptr noundef null) #14
  br label %67

36:                                               ; preds = %32
  %37 = load ptr, ptr %8, align 8, !tbaa !17
  %38 = getelementptr inbounds nuw i8, ptr %37, i64 56
  %39 = load ptr, ptr %38, align 8, !tbaa !48
  %40 = tail call i32 %39(ptr noundef nonnull %0, ptr noundef %1, i32 noundef %2) #14
  %41 = icmp sgt i32 %40, 0
  br i1 %41, label %42, label %44

42:                                               ; preds = %36
  %43 = zext nneg i32 %40 to i64
  store i64 %43, ptr %4, align 8, !tbaa !32
  br label %44

44:                                               ; preds = %42, %36
  %45 = phi i64 [ %43, %42 ], [ 0, %36 ]
  %.0 = phi i32 [ 1, %42 ], [ %40, %36 ]
  %46 = load ptr, ptr %20, align 8, !tbaa !23
  %.not37 = icmp eq ptr %46, null
  %47 = getelementptr inbounds nuw i8, ptr %0, i64 24
  %48 = load ptr, ptr %47, align 8, !tbaa !24
  %.not38 = icmp eq ptr %48, null
  br i1 %.not37, label %49, label %50

49:                                               ; preds = %44
  br i1 %.not38, label %60, label %.thread46

50:                                               ; preds = %44
  br i1 %.not38, label %53, label %.thread46

.thread46:                                        ; preds = %49, %50
  %51 = zext nneg i32 %2 to i64
  %52 = call i64 %48(ptr noundef nonnull %0, i32 noundef 133, ptr noundef %1, i64 noundef %51, i32 noundef 0, i64 noundef 0, i32 noundef %.0, ptr noundef nonnull %4) #14
  br label %bio_call_callback.exit41

53:                                               ; preds = %50
  %54 = sext i32 %.0 to i64
  %55 = icmp sgt i32 %.0, 0
  %spec.select48 = select i1 %55, i64 %45, i64 %54
  %56 = tail call i64 %46(ptr noundef nonnull %0, i32 noundef 133, ptr noundef %1, i32 noundef %2, i64 noundef 0, i64 noundef %spec.select48) #14
  %57 = icmp sgt i64 %56, 0
  br i1 %57, label %58, label %bio_call_callback.exit41

58:                                               ; preds = %53
  store i64 %56, ptr %4, align 8, !tbaa !32
  br label %bio_call_callback.exit41

bio_call_callback.exit41:                         ; preds = %.thread46, %53, %58
  %.0.i40 = phi i64 [ %52, %.thread46 ], [ 1, %58 ], [ %56, %53 ]
  %59 = trunc i64 %.0.i40 to i32
  br label %60

60:                                               ; preds = %bio_call_callback.exit41, %49
  %.1 = phi i32 [ %59, %bio_call_callback.exit41 ], [ %.0, %49 ]
  %61 = icmp sgt i32 %.1, 0
  br i1 %61, label %62, label %67

62:                                               ; preds = %60
  %63 = load i64, ptr %4, align 8, !tbaa !32
  %64 = zext nneg i32 %2 to i64
  %65 = icmp ugt i64 %63, %64
  %66 = trunc nuw nsw i64 %63 to i32
  %spec.select = select i1 %65, i32 -1, i32 %66
  br label %67

67:                                               ; preds = %62, %60, %bio_call_callback.exit, %35, %18, %15, %6
  %.027 = phi i32 [ -1, %6 ], [ -2, %15 ], [ -1, %18 ], [ -1, %35 ], [ %30, %bio_call_callback.exit ], [ %.1, %60 ], [ %spec.select, %62 ]
  call void @llvm.lifetime.end.p0(i64 8, ptr nonnull %4) #14
  ret i32 %.027
}